; Function Attrs: nounwind sspstrong uwtable
define internal i64 @add_status_convert_time(i64 noundef %0) #0 {
  %2 = and i64 %0, 1
  %.not.i = icmp eq i64 %2, 0
  br i1 %.not.i, label %3, label %12

3:                                                ; preds = %1
  %4 = icmp eq i64 %0, 0
  %5 = and i64 %0, 6
  %6 = icmp ne i64 %5, 0
  %7 = or i1 %4, %6
  br i1 %7, label %rb_integer_type_p.exit.thread7, label %rb_integer_type_p.exit

rb_integer_type_p.exit:                           ; preds = %3
  %8 = inttoptr i64 %0 to ptr
  %9 = load i64, ptr %8, align 8, !tbaa !16
  %10 = and i64 %9, 31
  %11 = icmp eq i64 %10, 10
  br i1 %11, label %14, label %rb_integer_type_p.exit.thread7

12:                                               ; preds = %1
  %13 = tail call i64 @rb_fix2int(i64 noundef %0) #5
  br label %rb_num2int_inline.exit

14:                                               ; preds = %rb_integer_type_p.exit
  %15 = tail call i64 @rb_num2int(i64 noundef %0) #5
  br label %rb_num2int_inline.exit

rb_num2int_inline.exit:                           ; preds = %12, %14
  %.0.i5 = phi i64 [ %13, %12 ], [ %15, %14 ]
  %sext = shl i64 %.0.i5, 32
  %16 = ashr exact i64 %sext, 32
  %17 = tail call ptr @X509_gmtime_adj(ptr noundef null, i64 noundef %16) #5
  br label %19

rb_integer_type_p.exit.thread7:                   ; preds = %3, %rb_integer_type_p.exit
  %18 = tail call ptr @ossl_x509_time_adjust(ptr noundef null, i64 noundef %0) #5
  br label %19

19:                                               ; preds = %rb_integer_type_p.exit.thread7, %rb_num2int_inline.exit
  %.0 = phi ptr [ %17, %rb_num2int_inline.exit ], [ %18, %rb_integer_type_p.exit.thread7 ]
  %.not = icmp eq ptr %.0, null
  br i1 %.not, label %20, label %22

20:                                               ; preds = %19
  %21 = load i64, ptr @eOCSPError, align 8, !tbaa !6
  tail call void (i64, ptr, ...) @ossl_raise(i64 noundef %21, ptr noundef null) #6
  unreachable

22:                                               ; preds = %19
  %23 = ptrtoint ptr %.0 to i64
  ret i64 %23
}